target datalayout = "e-m:e-p270:32:32-p271:32:32-p272:64:64-i64:64-i128:128-f80:128-n8:16:32:64-S128"
target triple = "x86_64-pc-linux-gnu"

%struct.luaL_Strbuf = type { ptr, ptr, ptr, ptr, [512 x i8] }

@.str.15 = private unnamed_addr constant [4 x i8] c"nil\00", align 1
@.str.16 = private unnamed_addr constant [5 x i8] c"true\00", align 1
@.str.17 = private unnamed_addr constant [6 x i8] c"false\00", align 1

; Function Attrs: mustprogress uwtable
define dso_local void @_Z16luaL_addvalueanyP11luaL_Strbufi(ptr noundef %0, i32 noundef %1) #3 {
  %3 = alloca ptr, align 8
  %4 = alloca i32, align 4
  %5 = alloca ptr, align 8
  %6 = alloca double, align 8
  %7 = alloca [48 x i8], align 16
  %8 = alloca ptr, align 8
  %9 = alloca i64, align 8
  %10 = alloca ptr, align 8
  %11 = alloca i64, align 8
  store ptr %0, ptr %3, align 8
  store i32 %1, ptr %4, align 4
  %12 = load ptr, ptr %3, align 8
  %13 = getelementptr inbounds %struct.luaL_Strbuf, ptr %12, i32 0, i32 2
  %14 = load ptr, ptr %13, align 8
  store ptr %14, ptr %5, align 8
  %15 = load ptr, ptr %5, align 8
  %16 = load i32, ptr %4, align 4
  %17 = call noundef i32 @_Z8lua_typeP9lua_Statei(ptr noundef %15, i32 noundef %16)
  switch i32 %17, label %52 [
    i32 -1, label %18
    i32 0, label %19
    i32 1, label %21
    i32 3, label %31
    i32 5, label %45
  ]

18:                                               ; preds = %2
  br label %57

19:                                               ; preds = %2
  %20 = load ptr, ptr %3, align 8
  call void @_Z15luaL_addlstringP11luaL_StrbufPKcm(ptr noundef %20, ptr noundef @.str.15, i64 noundef 3)
  br label %57

21:                                               ; preds = %2
  %22 = load ptr, ptr %5, align 8
  %23 = load i32, ptr %4, align 4
  %24 = call noundef i32 @_Z13lua_tobooleanP9lua_Statei(ptr noundef %22, i32 noundef %23)
  %25 = icmp ne i32 %24, 0
  br i1 %25, label %26, label %28

26:                                               ; preds = %21
  %27 = load ptr, ptr %3, align 8
  call void @_Z15luaL_addlstringP11luaL_StrbufPKcm(ptr noundef %27, ptr noundef @.str.16, i64 noundef 4)
  br label %30

28:                                               ; preds = %21
  %29 = load ptr, ptr %3, align 8
  call void @_Z15luaL_addlstringP11luaL_StrbufPKcm(ptr noundef %29, ptr noundef @.str.17, i64 noundef 5)
  br label %30

30:                                               ; preds = %28, %26
  br label %57

31:                                               ; preds = %2
  %32 = load ptr, ptr %5, align 8
  %33 = load i32, ptr %4, align 4
  %34 = call noundef double @_Z13lua_tonumberxP9lua_StateiPi(ptr noundef %32, i32 noundef %33, ptr noundef null)
  store double %34, ptr %6, align 8
  %35 = getelementptr inbounds [48 x i8], ptr %7, i64 0, i64 0
  %36 = load double, ptr %6, align 8
  %37 = call noundef ptr @_Z12luai_num2strPcd(ptr noundef %35, double noundef %36)
  store ptr %37, ptr %8, align 8
  %38 = load ptr, ptr %3, align 8
  %39 = getelementptr inbounds [48 x i8], ptr %7, i64 0, i64 0
  %40 = load ptr, ptr %8, align 8
  %41 = getelementptr inbounds [48 x i8], ptr %7, i64 0, i64 0
  %42 = ptrtoint ptr %40 to i64
  %43 = ptrtoint ptr %41 to i64
  %44 = sub i64 %42, %43
  call void @_Z15luaL_addlstringP11luaL_StrbufPKcm(ptr noundef %38, ptr noundef %39, i64 noundef %44)
  br label %57

45:                                               ; preds = %2
  %46 = load ptr, ptr %5, align 8
  %47 = load i32, ptr %4, align 4
  %48 = call noundef ptr @_Z13lua_tolstringP9lua_StateiPm(ptr noundef %46, i32 noundef %47, ptr noundef %9)
  store ptr %48, ptr %10, align 8
  %49 = load ptr, ptr %3, align 8
  %50 = load ptr, ptr %10, align 8
  %51 = load i64, ptr %9, align 8
  call void @_Z15luaL_addlstringP11luaL_StrbufPKcm(ptr noundef %49, ptr noundef %50, i64 noundef %51)
  br label %57

52:                                               ; preds = %2
  %53 = load ptr, ptr %5, align 8
  %54 = load i32, ptr %4, align 4
  %55 = call noundef ptr @_Z14luaL_tolstringP9lua_StateiPm(ptr noundef %53, i32 noundef %54, ptr noundef %11)
  %56 = load ptr, ptr %3, align 8
  call void @_Z13luaL_addvalueP11luaL_Strbuf(ptr noundef %56)
  br label %57

57:                                               ; preds = %52, %45, %31, %30, %19, %18
  ret void
}