; Function Attrs: mustprogress uwtable
define dso_local void @_Z16luaL_addvalueanyP11luaL_Strbufi(ptr noundef %0, i32 noundef %1) local_unnamed_addr #2 {
  %3 = alloca [48 x i8], align 16
  %4 = alloca i64, align 8
  %5 = alloca i64, align 8
  %6 = getelementptr inbounds i8, ptr %0, i64 16
  %7 = load ptr, ptr %6, align 8
  %8 = tail call noundef i32 @_Z8lua_typeP9lua_Statei(ptr noundef %7, i32 noundef %1)
  switch i32 %8, label %23 [
    i32 -1, label %25
    i32 0, label %9
    i32 1, label %10
    i32 3, label %14
    i32 5, label %20
  ]

9:                                                ; preds = %2
  tail call void @_Z15luaL_addlstringP11luaL_StrbufPKcm(ptr noundef nonnull %0, ptr noundef nonnull @.str.15, i64 noundef 3)
  br label %25

10:                                               ; preds = %2
  %11 = tail call noundef i32 @_Z13lua_tobooleanP9lua_Statei(ptr noundef %7, i32 noundef %1)
  %.not = icmp eq i32 %11, 0
  br i1 %.not, label %13, label %12

12:                                               ; preds = %10
  tail call void @_Z15luaL_addlstringP11luaL_StrbufPKcm(ptr noundef nonnull %0, ptr noundef nonnull @.str.16, i64 noundef 4)
  br label %25

13:                                               ; preds = %10
  tail call void @_Z15luaL_addlstringP11luaL_StrbufPKcm(ptr noundef nonnull %0, ptr noundef nonnull @.str.17, i64 noundef 5)
  br label %25

14:                                               ; preds = %2
  %15 = tail call noundef double @_Z13lua_tonumberxP9lua_StateiPi(ptr noundef %7, i32 noundef %1, ptr noundef null)
  %16 = call noundef ptr @_Z12luai_num2strPcd(ptr noundef nonnull %3, double noundef %15)
  %17 = ptrtoint ptr %16 to i64
  %18 = ptrtoint ptr %3 to i64
  %19 = sub i64 %17, %18
  call void @_Z15luaL_addlstringP11luaL_StrbufPKcm(ptr noundef nonnull %0, ptr noundef nonnull %3, i64 noundef %19)
  br label %25

20:                                               ; preds = %2
  %21 = call noundef ptr @_Z13lua_tolstringP9lua_StateiPm(ptr noundef %7, i32 noundef %1, ptr noundef nonnull %4)
  %22 = load i64, ptr %4, align 8
  call void @_Z15luaL_addlstringP11luaL_StrbufPKcm(ptr noundef nonnull %0, ptr noundef %21, i64 noundef %22)
  br label %25

23:                                               ; preds = %2
  %24 = call noundef ptr @_Z14luaL_tolstringP9lua_StateiPm(ptr noundef %7, i32 noundef %1, ptr noundef nonnull %5)
  call void @_Z13luaL_addvalueP11luaL_Strbuf(ptr noundef nonnull %0)
  br label %25

25:                                               ; preds = %12, %13, %2, %23, %20, %14, %9
  ret void
}